target datalayout = "e-m:e-p270:32:32-p271:32:32-p272:64:64-i64:64-i128:128-f80:128-n8:16:32:64-S128"
target triple = "x86_64-pc-linux-gnu"

@_ZN13duckdb_brotli16kBrotliLog2TableE = external constant [256 x double], align 16

; Function Attrs: alwaysinline mustprogress nounwind uwtable
define internal noundef double @_ZN13duckdb_brotliL8FastLog2Em(i64 noundef %0) #4 {
  %2 = alloca double, align 8
  %3 = alloca i64, align 8
  store i64 %0, ptr %3, align 8, !tbaa !8
  %4 = load i64, ptr %3, align 8, !tbaa !8
  %5 = icmp ult i64 %4, 256
  br i1 %5, label %6, label %10

6:                                                ; preds = %1
  %7 = load i64, ptr %3, align 8, !tbaa !8
  %8 = getelementptr inbounds nuw [256 x double], ptr @_ZN13duckdb_brotli16kBrotliLog2TableE, i64 0, i64 %7
  %9 = load double, ptr %8, align 8, !tbaa !142
  store double %9, ptr %2, align 8
  br label %14

10:                                               ; preds = %1
  %11 = load i64, ptr %3, align 8, !tbaa !8
  %12 = uitofp i64 %11 to double
  %13 = call double @log2(double noundef %12) #11, !tbaa !17
  store double %13, ptr %2, align 8
  br label %14

14:                                               ; preds = %10, %6
  %15 = load double, ptr %2, align 8
  ret double %15
}

; Function Attrs: mustprogress nounwind uwtable
define internal void @_ZL7SetCostPKjmiPf(ptr noundef %0, i64 noundef %1, i32 noundef %2, ptr noundef %3) #0 {
  %5 = alloca ptr, align 8
  %6 = alloca i64, align 8
  %7 = alloca i32, align 4
  %8 = alloca ptr, align 8
  %9 = alloca i64, align 8
  %10 = alloca i64, align 8
  %11 = alloca float, align 4
  %12 = alloca float, align 4
  %13 = alloca i64, align 8
  store ptr %0, ptr %5, align 8, !tbaa !20
  store i64 %1, ptr %6, align 8, !tbaa !8
  store i32 %2, ptr %7, align 4, !tbaa !17
  store ptr %3, ptr %8, align 8, !tbaa !85
  call void @llvm.lifetime.start.p0(i64 8, ptr %9) #11
  store i64 0, ptr %9, align 8, !tbaa !8
  call void @llvm.lifetime.start.p0(i64 8, ptr %10) #11
  call void @llvm.lifetime.start.p0(i64 4, ptr %11) #11
  call void @llvm.lifetime.start.p0(i64 4, ptr %12) #11
  call void @llvm.lifetime.start.p0(i64 8, ptr %13) #11
  store i64 0, ptr %13, align 8, !tbaa !8
  br label %14

14:                                               ; preds = %26, %4
  %15 = load i64, ptr %13, align 8, !tbaa !8
  %16 = load i64, ptr %6, align 8, !tbaa !8
  %17 = icmp ult i64 %15, %16
  br i1 %17, label %18, label %29

18:                                               ; preds = %14
  %19 = load ptr, ptr %5, align 8, !tbaa !20
  %20 = load i64, ptr %13, align 8, !tbaa !8
  %21 = getelementptr inbounds nuw i32, ptr %19, i64 %20
  %22 = load i32, ptr %21, align 4, !tbaa !17
  %23 = zext i32 %22 to i64
  %24 = load i64, ptr %9, align 8, !tbaa !8
  %25 = add i64 %24, %23
  store i64 %25, ptr %9, align 8, !tbaa !8
  br label %26

26:                                               ; preds = %18
  %27 = load i64, ptr %13, align 8, !tbaa !8
  %28 = add i64 %27, 1
  store i64 %28, ptr %13, align 8, !tbaa !8
  br label %14, !llvm.loop !165

29:                                               ; preds = %14
  %30 = load i64, ptr %9, align 8, !tbaa !8
  %31 = call noundef double @_ZN13duckdb_brotliL8FastLog2Em(i64 noundef %30)
  %32 = fptrunc double %31 to float
  store float %32, ptr %11, align 4, !tbaa !86
  %33 = load i64, ptr %9, align 8, !tbaa !8
  store i64 %33, ptr %10, align 8, !tbaa !8
  %34 = load i32, ptr %7, align 4, !tbaa !17
  %35 = icmp ne i32 %34, 0
  br i1 %35, label %55, label %36

36:                                               ; preds = %29
  store i64 0, ptr %13, align 8, !tbaa !8
  br label %37

37:                                               ; preds = %51, %36
  %38 = load i64, ptr %13, align 8, !tbaa !8
  %39 = load i64, ptr %6, align 8, !tbaa !8
  %40 = icmp ult i64 %38, %39
  br i1 %40, label %41, label %54

41:                                               ; preds = %37
  %42 = load ptr, ptr %5, align 8, !tbaa !20
  %43 = load i64, ptr %13, align 8, !tbaa !8
  %44 = getelementptr inbounds nuw i32, ptr %42, i64 %43
  %45 = load i32, ptr %44, align 4, !tbaa !17
  %46 = icmp eq i32 %45, 0
  br i1 %46, label %47, label %50

47:                                               ; preds = %41
  %48 = load i64, ptr %10, align 8, !tbaa !8
  %49 = add i64 %48, 1
  store i64 %49, ptr %10, align 8, !tbaa !8
  br label %50

50:                                               ; preds = %47, %41
  br label %51

51:                                               ; preds = %50
  %52 = load i64, ptr %13, align 8, !tbaa !8
  %53 = add i64 %52, 1
  store i64 %53, ptr %13, align 8, !tbaa !8
  br label %37, !llvm.loop !166

54:                                               ; preds = %37
  br label %55

55:                                               ; preds = %54, %29
  %56 = load i64, ptr %10, align 8, !tbaa !8
  %57 = call noundef double @_ZN13duckdb_brotliL8FastLog2Em(i64 noundef %56)
  %58 = fptrunc double %57 to float
  %59 = fadd float %58, 2.000000e+00
  store float %59, ptr %12, align 4, !tbaa !86
  store i64 0, ptr %13, align 8, !tbaa !8
  br label %60

60:                                               ; preds = %98, %55
  %61 = load i64, ptr %13, align 8, !tbaa !8
  %62 = load i64, ptr %6, align 8, !tbaa !8
  %63 = icmp ult i64 %61, %62
  br i1 %63, label %64, label %101

64:                                               ; preds = %60
  %65 = load ptr, ptr %5, align 8, !tbaa !20
  %66 = load i64, ptr %13, align 8, !tbaa !8
  %67 = getelementptr inbounds nuw i32, ptr %65, i64 %66
  %68 = load i32, ptr %67, align 4, !tbaa !17
  %69 = icmp eq i32 %68, 0
  br i1 %69, label %70, label %75

70:                                               ; preds = %64
  %71 = load float, ptr %12, align 4, !tbaa !86
  %72 = load ptr, ptr %8, align 8, !tbaa !85
  %73 = load i64, ptr %13, align 8, !tbaa !8
  %74 = getelementptr inbounds nuw float, ptr %72, i64 %73
  store float %71, ptr %74, align 4, !tbaa !86
  br label %98

75:                                               ; preds = %64
  %76 = load float, ptr %11, align 4, !tbaa !86
  %77 = load ptr, ptr %5, align 8, !tbaa !20
  %78 = load i64, ptr %13, align 8, !tbaa !8
  %79 = getelementptr inbounds nuw i32, ptr %77, i64 %78
  %80 = load i32, ptr %79, align 4, !tbaa !17
  %81 = zext i32 %80 to i64
  %82 = call noundef double @_ZN13duckdb_brotliL8FastLog2Em(i64 noundef %81)
  %83 = fptrunc double %82 to float
  %84 = fsub float %76, %83
  %85 = load ptr, ptr %8, align 8, !tbaa !85
  %86 = load i64, ptr %13, align 8, !tbaa !8
  %87 = getelementptr inbounds nuw float, ptr %85, i64 %86
  store float %84, ptr %87, align 4, !tbaa !86
  %88 = load ptr, ptr %8, align 8, !tbaa !85
  %89 = load i64, ptr %13, align 8, !tbaa !8
  %90 = getelementptr inbounds nuw float, ptr %88, i64 %89
  %91 = load float, ptr %90, align 4, !tbaa !86
  %92 = fcmp olt float %91, 1.000000e+00
  br i1 %92, label %93, label %97

93:                                               ; preds = %75
  %94 = load ptr, ptr %8, align 8, !tbaa !85
  %95 = load i64, ptr %13, align 8, !tbaa !8
  %96 = getelementptr inbounds nuw float, ptr %94, i64 %95
  store float 1.000000e+00, ptr %96, align 4, !tbaa !86
  br label %97

97:                                               ; preds = %93, %75
  br label %98

98:                                               ; preds = %97, %70
  %99 = load i64, ptr %13, align 8, !tbaa !8
  %100 = add i64 %99, 1
  store i64 %100, ptr %13, align 8, !tbaa !8
  br label %60, !llvm.loop !167

101:                                              ; preds = %60
  call void @llvm.lifetime.end.p0(i64 8, ptr %13) #11
  call void @llvm.lifetime.end.p0(i64 4, ptr %12) #11
  call void @llvm.lifetime.end.p0(i64 4, ptr %11) #11
  call void @llvm.lifetime.end.p0(i64 8, ptr %10) #11
  call void @llvm.lifetime.end.p0(i64 8, ptr %9) #11
  ret void
}