; Function Attrs: mustprogress nofree nounwind memory(write, argmem: readwrite) uwtable
define internal fastcc void @_ZL7SetCostPKjmiPf(ptr noundef readonly captures(none) %0, i64 noundef range(i64 0, 4294967296) %1, i32 noundef range(i32 0, 2) %2, ptr noundef writeonly captures(none) %3) unnamed_addr #10 {
  %.not51 = icmp eq i64 %1, 0
  br i1 %.not51, label %._crit_edge.thread, label %.lr.ph

.lr.ph:                                           ; preds = %4, %.lr.ph
  %.043 = phi i64 [ %9, %.lr.ph ], [ 0, %4 ]
  %.03242 = phi i64 [ %8, %.lr.ph ], [ 0, %4 ]
  %5 = getelementptr inbounds nuw i32, ptr %0, i64 %.043
  %6 = load i32, ptr %5, align 4, !tbaa !3
  %7 = zext i32 %6 to i64
  %8 = add i64 %.03242, %7
  %9 = add nuw nsw i64 %.043, 1
  %exitcond.not = icmp eq i64 %9, %1
  br i1 %exitcond.not, label %._crit_edge, label %.lr.ph, !llvm.loop !250

._crit_edge:                                      ; preds = %.lr.ph
  %10 = icmp ult i64 %8, 256
  br i1 %10, label %._crit_edge.thread, label %13

._crit_edge.thread:                               ; preds = %4, %._crit_edge
  %.032.lcssa56 = phi i64 [ %8, %._crit_edge ], [ 0, %4 ]
  %11 = getelementptr inbounds nuw [256 x double], ptr @_ZN13duckdb_brotli16kBrotliLog2TableE, i64 0, i64 %.032.lcssa56
  %12 = load double, ptr %11, align 8, !tbaa !167
  br label %_ZN13duckdb_brotliL8FastLog2Em.exit41

13:                                               ; preds = %._crit_edge
  %14 = uitofp i64 %8 to double
  %15 = tail call double @log2(double noundef %14) #13, !tbaa !3
  br label %_ZN13duckdb_brotliL8FastLog2Em.exit41

_ZN13duckdb_brotliL8FastLog2Em.exit41:            ; preds = %._crit_edge.thread, %13
  %.032.lcssa57 = phi i64 [ %.032.lcssa56, %._crit_edge.thread ], [ %8, %13 ]
  %.0.i40 = phi double [ %12, %._crit_edge.thread ], [ %15, %13 ]
  %16 = fptrunc double %.0.i40 to float
  %.not = icmp eq i32 %2, 0
  %17 = icmp ne i64 %1, 0
  %or.cond = and i1 %.not, %17
  br i1 %or.cond, label %.lr.ph46, label %.loopexit

.lr.ph46:                                         ; preds = %_ZN13duckdb_brotliL8FastLog2Em.exit41, %.lr.ph46
  %.145 = phi i64 [ %22, %.lr.ph46 ], [ 0, %_ZN13duckdb_brotliL8FastLog2Em.exit41 ]
  %.13444 = phi i64 [ %spec.select, %.lr.ph46 ], [ %.032.lcssa57, %_ZN13duckdb_brotliL8FastLog2Em.exit41 ]
  %18 = getelementptr inbounds nuw i32, ptr %0, i64 %.145
  %19 = load i32, ptr %18, align 4, !tbaa !3
  %20 = icmp eq i32 %19, 0
  %21 = zext i1 %20 to i64
  %spec.select = add i64 %.13444, %21
  %22 = add nuw nsw i64 %.145, 1
  %exitcond53.not = icmp eq i64 %22, %1
  br i1 %exitcond53.not, label %.loopexit, label %.lr.ph46, !llvm.loop !257

.loopexit:                                        ; preds = %.lr.ph46, %_ZN13duckdb_brotliL8FastLog2Em.exit41
  %.033 = phi i64 [ %.032.lcssa57, %_ZN13duckdb_brotliL8FastLog2Em.exit41 ], [ %spec.select, %.lr.ph46 ]
  %23 = icmp ult i64 %.033, 256
  br i1 %23, label %24, label %27

24:                                               ; preds = %.loopexit
  %25 = getelementptr inbounds nuw [256 x double], ptr @_ZN13duckdb_brotli16kBrotliLog2TableE, i64 0, i64 %.033
  %26 = load double, ptr %25, align 8, !tbaa !167
  br label %_ZN13duckdb_brotliL8FastLog2Em.exit39

27:                                               ; preds = %.loopexit
  %28 = uitofp i64 %.033 to double
  %29 = tail call double @log2(double noundef %28) #13, !tbaa !3
  br label %_ZN13duckdb_brotliL8FastLog2Em.exit39

_ZN13duckdb_brotliL8FastLog2Em.exit39:            ; preds = %24, %27
  %.0.i38 = phi double [ %26, %24 ], [ %29, %27 ]
  %30 = fptrunc double %.0.i38 to float
  %31 = fadd float %30, 2.000000e+00
  br i1 %.not51, label %._crit_edge50, label %.lr.ph49

.lr.ph49:                                         ; preds = %_ZN13duckdb_brotliL8FastLog2Em.exit39, %51
  %.248 = phi i64 [ %52, %51 ], [ 0, %_ZN13duckdb_brotliL8FastLog2Em.exit39 ]
  %32 = getelementptr inbounds nuw i32, ptr %0, i64 %.248
  %33 = load i32, ptr %32, align 4, !tbaa !3
  %34 = icmp eq i32 %33, 0
  br i1 %34, label %35, label %37

35:                                               ; preds = %.lr.ph49
  %36 = getelementptr inbounds nuw float, ptr %3, i64 %.248
  store float %31, ptr %36, align 4, !tbaa !154
  br label %51

37:                                               ; preds = %.lr.ph49
  %38 = icmp ult i32 %33, 256
  br i1 %38, label %39, label %43

39:                                               ; preds = %37
  %40 = zext nneg i32 %33 to i64
  %41 = getelementptr inbounds nuw [256 x double], ptr @_ZN13duckdb_brotli16kBrotliLog2TableE, i64 0, i64 %40
  %42 = load double, ptr %41, align 8, !tbaa !167
  br label %_ZN13duckdb_brotliL8FastLog2Em.exit

43:                                               ; preds = %37
  %44 = uitofp i32 %33 to double
  %45 = tail call double @log2(double noundef %44) #13, !tbaa !3
  br label %_ZN13duckdb_brotliL8FastLog2Em.exit

_ZN13duckdb_brotliL8FastLog2Em.exit:              ; preds = %39, %43
  %.0.i = phi double [ %42, %39 ], [ %45, %43 ]
  %46 = fptrunc double %.0.i to float
  %47 = fsub float %16, %46
  %48 = getelementptr inbounds nuw float, ptr %3, i64 %.248
  store float %47, ptr %48, align 4, !tbaa !154
  %49 = fcmp olt float %47, 1.000000e+00
  br i1 %49, label %50, label %51

50:                                               ; preds = %_ZN13duckdb_brotliL8FastLog2Em.exit
  store float 1.000000e+00, ptr %48, align 4, !tbaa !154
  br label %51

51:                                               ; preds = %_ZN13duckdb_brotliL8FastLog2Em.exit, %50, %35
  %52 = add nuw nsw i64 %.248, 1
  %exitcond54.not = icmp eq i64 %52, %1
  br i1 %exitcond54.not, label %._crit_edge50, label %.lr.ph49, !llvm.loop !251

._crit_edge50:                                    ; preds = %51, %_ZN13duckdb_brotliL8FastLog2Em.exit39
  ret void
}